target datalayout = "e-m:e-p270:32:32-p271:32:32-p272:64:64-i64:64-i128:128-f80:128-n8:16:32:64-S128"
target triple = "x86_64-pc-linux-gnu"

@H5O_init_g = external global i8, align 1
@H5_libterm_g = external global i8, align 1
@H5_H5O_linfo_t_reg_free_list = internal global { i8, [3 x i8], i32, i32, [4 x i8], ptr, i64, ptr } { i8 0, [3 x i8] zeroinitializer, i32 0, i32 0, [4 x i8] zeroinitializer, ptr @.str.7, i64 48, ptr null }, align 8

; Function Attrs: nounwind uwtable
define internal i32 @H5O__linfo_free(ptr noundef %0) #0 {
  %2 = alloca ptr, align 8
  store ptr %0, ptr %2, align 8, !tbaa !21
  %3 = load i8, ptr @H5O_init_g, align 1, !tbaa !22, !range !24, !noundef !25
  %4 = trunc i8 %3 to i1
  br i1 %4, label %9, label %5

5:                                                ; preds = %1
  %6 = load i8, ptr @H5_libterm_g, align 1, !tbaa !22, !range !24, !noundef !25
  %7 = trunc i8 %6 to i1
  %8 = xor i1 %7, true
  br label %9

9:                                                ; preds = %5, %1
  %10 = phi i1 [ true, %1 ], [ %8, %5 ]
  %11 = xor i1 %10, true
  %12 = xor i1 %11, true
  %13 = zext i1 %12 to i32
  %14 = sext i32 %13 to i64
  %15 = call i64 @llvm.expect.i64(i64 %14, i64 1)
  %16 = icmp ne i64 %15, 0
  br i1 %16, label %17, label %20

17:                                               ; preds = %9
  %18 = load ptr, ptr %2, align 8, !tbaa !21
  %19 = call ptr @H5FL_reg_free(ptr noundef @H5_H5O_linfo_t_reg_free_list, ptr noundef %18)
  store ptr %19, ptr %2, align 8, !tbaa !21
  br label %20

20:                                               ; preds = %17, %9
  ret i32 0
}